; Function Attrs: mustprogress uwtable
define noundef ptr @mz_zip_reader_extract_file_to_heap(ptr noundef %0, ptr noundef %1, ptr noundef writeonly %2, i32 noundef %3) local_unnamed_addr #9 {
  %5 = tail call i32 @mz_zip_reader_locate_file(ptr noundef %0, ptr noundef %1, ptr noundef null, i32 noundef %3)
  %6 = icmp slt i32 %5, 0
  br i1 %6, label %7, label %9

7:                                                ; preds = %4
  %.not = icmp eq ptr %2, null
  br i1 %.not, label %mz_zip_reader_extract_to_heap.exit, label %8

8:                                                ; preds = %7
  store i64 0, ptr %2, align 8
  br label %mz_zip_reader_extract_to_heap.exit

9:                                                ; preds = %4
  %.not.i = icmp eq ptr %0, null
  br i1 %.not.i, label %28, label %10

10:                                               ; preds = %9
  %11 = getelementptr inbounds i8, ptr %0, i64 88
  %12 = load ptr, ptr %11, align 8
  %.not40.i = icmp eq ptr %12, null
  br i1 %.not40.i, label %28, label %13

13:                                               ; preds = %10
  %14 = getelementptr inbounds i8, ptr %0, i64 16
  %15 = load i32, ptr %14, align 8
  %.not41.i = icmp ugt i32 %15, %5
  br i1 %.not41.i, label %16, label %28

16:                                               ; preds = %13
  %17 = getelementptr inbounds i8, ptr %0, i64 20
  %18 = load i32, ptr %17, align 4
  %.not42.i = icmp eq i32 %18, 1
  br i1 %.not42.i, label %19, label %28

19:                                               ; preds = %16
  %20 = load ptr, ptr %12, align 8
  %21 = getelementptr inbounds i8, ptr %12, i64 32
  %22 = load ptr, ptr %21, align 8
  %23 = zext nneg i32 %5 to i64
  %24 = getelementptr inbounds i32, ptr %22, i64 %23
  %25 = load i32, ptr %24, align 4
  %26 = zext i32 %25 to i64
  %27 = getelementptr inbounds i8, ptr %20, i64 %26
  br label %28

28:                                               ; preds = %19, %16, %13, %10, %9
  %.0.i = phi ptr [ %27, %19 ], [ null, %16 ], [ null, %13 ], [ null, %10 ], [ null, %9 ]
  %.not43.i = icmp eq ptr %2, null
  br i1 %.not43.i, label %30, label %29

29:                                               ; preds = %28
  store i64 0, ptr %2, align 8
  br label %30

30:                                               ; preds = %29, %28
  %.not44.i = icmp eq ptr %.0.i, null
  br i1 %.not44.i, label %mz_zip_reader_extract_to_heap.exit, label %31

31:                                               ; preds = %30
  %32 = getelementptr inbounds i8, ptr %.0.i, i64 20
  %33 = load i32, ptr %32, align 4
  %34 = getelementptr inbounds i8, ptr %.0.i, i64 24
  %35 = load i32, ptr %34, align 4
  %36 = and i32 %3, 1024
  %.not45.i = icmp eq i32 %36, 0
  %.v.i = select i1 %.not45.i, i32 %35, i32 %33
  %37 = zext i32 %.v.i to i64
  %38 = getelementptr inbounds i8, ptr %0, i64 32
  %39 = load ptr, ptr %38, align 8
  %40 = getelementptr inbounds i8, ptr %0, i64 56
  %41 = load ptr, ptr %40, align 8
  %42 = tail call noundef ptr %39(ptr noundef %41, i64 noundef 1, i64 noundef %37)
  %43 = icmp eq ptr %42, null
  br i1 %43, label %mz_zip_reader_extract_to_heap.exit, label %44

44:                                               ; preds = %31
  %45 = tail call i32 @mz_zip_reader_extract_to_mem_no_alloc(ptr noundef nonnull %0, i32 noundef %5, ptr noundef nonnull %42, i64 noundef %37, i32 noundef %3, ptr noundef null, i64 noundef 0), !range !16
  %.not46.i = icmp eq i32 %45, 0
  br i1 %.not46.i, label %46, label %50

46:                                               ; preds = %44
  %47 = getelementptr inbounds i8, ptr %0, i64 40
  %48 = load ptr, ptr %47, align 8
  %49 = load ptr, ptr %40, align 8
  tail call void %48(ptr noundef %49, ptr noundef nonnull %42)
  br label %mz_zip_reader_extract_to_heap.exit

50:                                               ; preds = %44
  br i1 %.not43.i, label %mz_zip_reader_extract_to_heap.exit, label %51

51:                                               ; preds = %50
  store i64 %37, ptr %2, align 8
  br label %mz_zip_reader_extract_to_heap.exit

mz_zip_reader_extract_to_heap.exit:               ; preds = %51, %50, %46, %31, %30, %7, %8
  %.0 = phi ptr [ null, %8 ], [ null, %7 ], [ null, %46 ], [ null, %30 ], [ null, %31 ], [ %42, %51 ], [ %42, %50 ]
  ret ptr %.0
}